target datalayout = "e-m:e-p270:32:32-p271:32:32-p272:64:64-i64:64-i128:128-f80:128-n8:16:32:64-S128"
target triple = "x86_64-pc-linux-gnu"

%struct._GdkRGBA = type { double, double, double, double }
%struct.darktable_t = type { %struct.dt_codepath_t, i32, i32, ptr, ptr, ptr, ptr, ptr, ptr, ptr, ptr, ptr, ptr, ptr, ptr, ptr, ptr, ptr, ptr, ptr, ptr, ptr, ptr, ptr, ptr, ptr, ptr, ptr, ptr, ptr, [64 x %struct.dt_pthread_mutex_t], %struct.dt_pthread_mutex_t, %struct.dt_pthread_mutex_t, %struct.dt_pthread_mutex_t, %struct.dt_pthread_mutex_t, %struct.dt_pthread_mutex_t, ptr, ptr, ptr, ptr, ptr, ptr, ptr, ptr, ptr, ptr, ptr, ptr, ptr, %struct.dt_lua_state_t, ptr, double, ptr, i32, [47 x i32], i32, i32, ptr, ptr, %struct.dt_sys_resources_t, %struct.dt_backthumb_t, %struct.dt_gimp_t }
%struct.dt_codepath_t = type { i8, [3 x i8] }
%struct.dt_pthread_mutex_t = type { %union.pthread_mutex_t }
%union.pthread_mutex_t = type { %struct.__pthread_mutex_s }
%struct.__pthread_mutex_s = type { i32, i32, i32, i32, i32, i16, i16, %struct.__pthread_internal_list }
%struct.__pthread_internal_list = type { ptr, ptr }
%struct.dt_lua_state_t = type { i32 }
%struct.dt_sys_resources_t = type { i64, i64, ptr, ptr, i32 }
%struct.dt_backthumb_t = type { double, double, i32, i32, i32, i32 }
%struct.dt_gimp_t = type { i32, ptr, ptr, i32, i32 }
%struct.dt_iop_module_t = type { i32, ptr, ptr, ptr, ptr, ptr, ptr, ptr, ptr, ptr, ptr, ptr, ptr, ptr, ptr, ptr, ptr, ptr, ptr, ptr, ptr, ptr, ptr, ptr, ptr, ptr, ptr, ptr, ptr, ptr, ptr, ptr, ptr, ptr, ptr, ptr, ptr, ptr, ptr, ptr, ptr, ptr, ptr, ptr, ptr, ptr, ptr, ptr, ptr, ptr, ptr, ptr, ptr, ptr, ptr, ptr, ptr, [20 x i8], i32, i32, i32, i32, i32, i32, i32, [8 x i8], [4 x float], [4 x float], [4 x float], [4 x float], [4 x float], [4 x float], ptr, %struct.dt_dev_histogram_stats_t, [4 x i32], i32, i32, ptr, i32, i32, ptr, ptr, i32, ptr, %struct.dt_pthread_mutex_t, ptr, ptr, ptr, ptr, %struct.anon, ptr, ptr, ptr, ptr, ptr, ptr, ptr, i32, ptr, ptr, ptr, ptr, ptr, ptr, ptr, i32, ptr, i32, [128 x i8], i32, ptr, ptr, i32, [12 x i8] }
%struct.dt_dev_histogram_stats_t = type { i32, i64, i32, i32 }
%struct.anon = type { %struct.anon.0, %struct.anon.1 }
%struct.anon.0 = type { ptr, ptr }
%struct.anon.1 = type { ptr, i32 }
%struct.dt_iop_gui_blend_data_t = type { i32, i32, i32, i32, i32, i32, i32, ptr, ptr, ptr, ptr, ptr, ptr, ptr, ptr, ptr, ptr, ptr, ptr, ptr, [2 x %struct.dt_iop_gui_blendif_filter_t], ptr, ptr, ptr, ptr, ptr, ptr, ptr, ptr, ptr, ptr, ptr, ptr, i32, i32, ptr, i32, [8 x [2 x i32]], i32, i32, ptr, i32, ptr, ptr, ptr, [5 x ptr], [5 x i32], ptr, ptr, ptr, i32, ptr, ptr, i32, %struct.dt_pthread_mutex_t }
%struct.dt_iop_gui_blendif_filter_t = type { ptr, ptr, [4 x ptr], ptr, ptr, ptr }
%struct.dt_gui_gtk_t = type { ptr, %struct.dt_gui_widgets_t, %struct.dt_gui_scrollbars_t, i32, ptr, i32, [39 x %struct._GdkRGBA], i32, i32, i32, i32, i32, double, double, double, double, ptr, double, double, double, double, i32, i32, [4096 x i8], i32, i32, i32, %struct.dt_pthread_mutex_t }
%struct.dt_gui_widgets_t = type { ptr, ptr, ptr, ptr, i32, i32, i32 }
%struct.dt_gui_scrollbars_t = type { ptr, ptr, i32 }
%struct.dt_iop_gui_blendif_channel_t = type { ptr, ptr, float, i32, ptr, i32, float, [2 x i32], i32, ptr, ptr, ptr }
%struct.dt_develop_blend_params_t = type { i32, i32, i32, float, float, i32, i32, i32, float, i32, float, float, float, float, i32, [2 x i32], [64 x float], [16 x float], [20 x i8], i32, i32, i32 }

@darktable = external global %struct.darktable_t, align 8

; Function Attrs: nounwind uwtable
define internal void @_blendop_blendif_sliders_reset_callback(ptr noundef %0, ptr noundef %1) #0 {
  %3 = alloca ptr, align 8
  %4 = alloca ptr, align 8
  %5 = alloca ptr, align 8
  %6 = alloca ptr, align 8
  %7 = alloca i32, align 4
  %8 = alloca i32, align 4
  store ptr %0, ptr %3, align 8, !tbaa !175
  store ptr %1, ptr %4, align 8, !tbaa !31
  %9 = load ptr, ptr getelementptr inbounds nuw (%struct.darktable_t, ptr @darktable, i32 0, i32 14), align 8, !tbaa !39
  %10 = getelementptr inbounds nuw %struct.dt_gui_gtk_t, ptr %9, i32 0, i32 5
  %11 = load i32, ptr %10, align 8, !tbaa !72
  %12 = icmp ne i32 %11, 0
  br i1 %12, label %13, label %14

13:                                               ; preds = %2
  br label %75

14:                                               ; preds = %2
  call void @llvm.lifetime.start.p0(i64 8, ptr %5) #11
  %15 = load ptr, ptr %4, align 8, !tbaa !31
  %16 = getelementptr inbounds nuw %struct.dt_iop_gui_blend_data_t, ptr %15, i32 0, i32 7
  %17 = load ptr, ptr %16, align 8, !tbaa !134
  %18 = getelementptr inbounds nuw %struct.dt_iop_module_t, ptr %17, i32 0, i32 86
  %19 = load ptr, ptr %18, align 8, !tbaa !77
  store ptr %19, ptr %5, align 8, !tbaa !78
  call void @llvm.lifetime.start.p0(i64 8, ptr %6) #11
  %20 = load ptr, ptr %4, align 8, !tbaa !31
  %21 = getelementptr inbounds nuw %struct.dt_iop_gui_blend_data_t, ptr %20, i32 0, i32 35
  %22 = load ptr, ptr %21, align 8, !tbaa !85
  %23 = load ptr, ptr %4, align 8, !tbaa !31
  %24 = getelementptr inbounds nuw %struct.dt_iop_gui_blend_data_t, ptr %23, i32 0, i32 36
  %25 = load i32, ptr %24, align 8, !tbaa !79
  %26 = sext i32 %25 to i64
  %27 = getelementptr inbounds %struct.dt_iop_gui_blendif_channel_t, ptr %22, i64 %26
  store ptr %27, ptr %6, align 8, !tbaa !86
  call void @llvm.lifetime.start.p0(i64 4, ptr %7) #11
  %28 = load ptr, ptr %3, align 8, !tbaa !175
  %29 = load ptr, ptr %4, align 8, !tbaa !31
  %30 = getelementptr inbounds nuw %struct.dt_iop_gui_blend_data_t, ptr %29, i32 0, i32 20
  %31 = getelementptr inbounds [2 x %struct.dt_iop_gui_blendif_filter_t], ptr %30, i64 0, i64 1
  %32 = getelementptr inbounds nuw %struct.dt_iop_gui_blendif_filter_t, ptr %31, i32 0, i32 0
  %33 = load ptr, ptr %32, align 8, !tbaa !121
  %34 = icmp eq ptr %28, %33
  %35 = select i1 %34, i32 1, i32 0
  store i32 %35, ptr %7, align 4, !tbaa !80
  call void @llvm.lifetime.start.p0(i64 4, ptr %8) #11
  %36 = load ptr, ptr %6, align 8, !tbaa !86
  %37 = getelementptr inbounds nuw %struct.dt_iop_gui_blendif_channel_t, ptr %36, i32 0, i32 7
  %38 = load i32, ptr %7, align 4, !tbaa !80
  %39 = sext i32 %38 to i64
  %40 = getelementptr inbounds [2 x i32], ptr %37, i64 0, i64 %39
  %41 = load i32, ptr %40, align 4, !tbaa !80
  store i32 %41, ptr %8, align 4, !tbaa !80
  %42 = load ptr, ptr %5, align 8, !tbaa !78
  %43 = getelementptr inbounds nuw %struct.dt_develop_blend_params_t, ptr %42, i32 0, i32 5
  %44 = load i32, ptr %43, align 4, !tbaa !131
  %45 = and i32 %44, 2
  %46 = icmp ne i32 %45, 0
  br i1 %46, label %47, label %55

47:                                               ; preds = %14
  %48 = load i32, ptr %8, align 4, !tbaa !80
  %49 = add i32 16, %48
  %50 = shl i32 1, %49
  %51 = load ptr, ptr %5, align 8, !tbaa !78
  %52 = getelementptr inbounds nuw %struct.dt_develop_blend_params_t, ptr %51, i32 0, i32 7
  %53 = load i32, ptr %52, align 4, !tbaa !129
  %54 = or i32 %53, %50
  store i32 %54, ptr %52, align 4, !tbaa !129
  br label %64

55:                                               ; preds = %14
  %56 = load i32, ptr %8, align 4, !tbaa !80
  %57 = add i32 16, %56
  %58 = shl i32 1, %57
  %59 = xor i32 %58, -1
  %60 = load ptr, ptr %5, align 8, !tbaa !78
  %61 = getelementptr inbounds nuw %struct.dt_develop_blend_params_t, ptr %60, i32 0, i32 7
  %62 = load i32, ptr %61, align 4, !tbaa !129
  %63 = and i32 %62, %59
  store i32 %63, ptr %61, align 4, !tbaa !129
  br label %64

64:                                               ; preds = %55, %47
  %65 = load ptr, ptr getelementptr inbounds nuw (%struct.darktable_t, ptr @darktable, i32 0, i32 9), align 8, !tbaa !132
  %66 = load ptr, ptr %4, align 8, !tbaa !31
  %67 = getelementptr inbounds nuw %struct.dt_iop_gui_blend_data_t, ptr %66, i32 0, i32 7
  %68 = load ptr, ptr %67, align 8, !tbaa !134
  call void @dt_dev_add_history_item(ptr noundef %65, ptr noundef %68, i32 noundef 1)
  %69 = load ptr, ptr %4, align 8, !tbaa !31
  %70 = getelementptr inbounds nuw %struct.dt_iop_gui_blend_data_t, ptr %69, i32 0, i32 7
  %71 = load ptr, ptr %70, align 8, !tbaa !134
  %72 = load ptr, ptr %4, align 8, !tbaa !31
  %73 = getelementptr inbounds nuw %struct.dt_iop_gui_blend_data_t, ptr %72, i32 0, i32 36
  %74 = load i32, ptr %73, align 8, !tbaa !79
  call void @_blendop_blendif_update_tab(ptr noundef %71, i32 noundef %74)
  call void @llvm.lifetime.end.p0(i64 4, ptr %8) #11
  call void @llvm.lifetime.end.p0(i64 4, ptr %7) #11
  call void @llvm.lifetime.end.p0(i64 8, ptr %6) #11
  call void @llvm.lifetime.end.p0(i64 8, ptr %5) #11
  br label %75

75:                                               ; preds = %64, %13
  ret void
}