; Function Attrs: nounwind uwtable
define internal void @_blendop_blendif_sliders_reset_callback(ptr noundef readnone %0, ptr noundef readonly captures(none) %1) #0 {
  %3 = load ptr, ptr getelementptr inbounds nuw (i8, ptr @darktable, i64 104), align 8, !tbaa !33
  %4 = getelementptr inbounds nuw i8, ptr %3, i64 96
  %5 = load i32, ptr %4, align 8, !tbaa !66
  %.not = icmp eq i32 %5, 0
  br i1 %.not, label %6, label %40

6:                                                ; preds = %2
  %7 = getelementptr inbounds nuw i8, ptr %1, i64 32
  %8 = load ptr, ptr %7, align 8, !tbaa !79
  %9 = getelementptr inbounds nuw i8, ptr %8, i64 760
  %10 = load ptr, ptr %9, align 8, !tbaa !71
  %11 = getelementptr inbounds nuw i8, ptr %1, i64 384
  %12 = load ptr, ptr %11, align 8, !tbaa !76
  %13 = getelementptr inbounds nuw i8, ptr %1, i64 392
  %14 = load i32, ptr %13, align 8, !tbaa !72
  %15 = sext i32 %14 to i64
  %16 = getelementptr inbounds nuw i8, ptr %1, i64 208
  %17 = load ptr, ptr %16, align 8, !tbaa !108
  %18 = icmp eq ptr %0, %17
  %19 = zext i1 %18 to i64
  %20 = getelementptr inbounds %struct.dt_iop_gui_blendif_channel_t, ptr %12, i64 %15, i32 7, i64 %19
  %21 = load i32, ptr %20, align 4, !tbaa !77
  %22 = getelementptr inbounds nuw i8, ptr %10, i64 20
  %23 = load i32, ptr %22, align 4, !tbaa !118
  %24 = and i32 %23, 2
  %.not14 = icmp eq i32 %24, 0
  %25 = add i32 %21, 16
  %26 = shl nuw i32 1, %25
  br i1 %.not14, label %31, label %27

27:                                               ; preds = %6
  %28 = getelementptr inbounds nuw i8, ptr %10, i64 28
  %29 = load i32, ptr %28, align 4, !tbaa !116
  %30 = or i32 %29, %26
  store i32 %30, ptr %28, align 4, !tbaa !116
  br label %36

31:                                               ; preds = %6
  %32 = xor i32 %26, -1
  %33 = getelementptr inbounds nuw i8, ptr %10, i64 28
  %34 = load i32, ptr %33, align 4, !tbaa !116
  %35 = and i32 %34, %32
  store i32 %35, ptr %33, align 4, !tbaa !116
  br label %36

36:                                               ; preds = %31, %27
  %37 = load ptr, ptr getelementptr inbounds nuw (i8, ptr @darktable, i64 64), align 8, !tbaa !119
  tail call void @dt_dev_add_history_item(ptr noundef %37, ptr noundef nonnull %8, i32 noundef 1) #18
  %38 = load ptr, ptr %7, align 8, !tbaa !79
  %39 = load i32, ptr %13, align 8, !tbaa !72
  tail call fastcc void @_blendop_blendif_update_tab(ptr noundef %38, i32 noundef %39)
  br label %40

40:                                               ; preds = %2, %36
  ret void
}